; Function Attrs: mustprogress uwtable
define dso_local noundef i64 @_ZNK6mygame6Weapon12ByteSizeLongEv(ptr noundef nonnull align 8 dereferenceable(32) %this) unnamed_addr #3 align 2 personality ptr @__gxx_personality_v0 {
entry:
  %name_.i.i = getelementptr inbounds i8, ptr %this, i64 16
  %0 = load ptr, ptr %name_.i.i, align 8
  %_M_string_length.i = getelementptr inbounds i8, ptr %0, i64 8
  %1 = load i64, ptr %_M_string_length.i, align 8
  %cmp.not = icmp eq i64 %1, 0
  br i1 %cmp.not, label %if.end, label %if.then

if.then:                                          ; preds = %entry
  %conv.i.i = trunc i64 %1 to i32
  %or.i.i.i = or i32 %conv.i.i, 1
  %2 = tail call i32 @llvm.ctlz.i32(i32 %or.i.i.i, i1 true), !range !9
  %xor.i.i.i.i = xor i32 %2, 31
  %mul.i.i.i = mul nuw nsw i32 %xor.i.i.i.i, 9
  %add.i.i.i = add nuw nsw i32 %mul.i.i.i, 73
  %div1.i.i.i = lshr i32 %add.i.i.i, 6
  %conv.i.i.i = zext nneg i32 %div1.i.i.i to i64
  %add.i.i = add i64 %1, 1
  %add = add i64 %add.i.i, %conv.i.i.i
  br label %if.end

if.end:                                           ; preds = %if.then, %entry
  %total_size.0 = phi i64 [ %add, %if.then ], [ 0, %entry ]
  %damage_.i.i = getelementptr inbounds i8, ptr %this, i64 24
  %3 = load i32, ptr %damage_.i.i, align 8
  %cmp7.not = icmp eq i32 %3, 0
  br i1 %cmp7.not, label %if.end13, label %if.then8

if.then8:                                         ; preds = %if.end
  %cmp.i.i = icmp slt i32 %3, 0
  br i1 %cmp.i.i, label %_ZN6google8protobuf8internal14WireFormatLite9Int32SizeEi.exit, label %if.else.i.i

if.else.i.i:                                      ; preds = %if.then8
  %or.i.i.i6 = or i32 %3, 1
  %4 = tail call i32 @llvm.ctlz.i32(i32 %or.i.i.i6, i1 true), !range !9
  %xor.i.i.i.i7 = xor i32 %4, 31
  %mul.i.i.i8 = mul nuw nsw i32 %xor.i.i.i.i7, 9
  %add.i.i.i9 = add nuw nsw i32 %mul.i.i.i8, 73
  %div1.i.i.i10 = lshr i32 %add.i.i.i9, 6
  %narrow = add nuw nsw i32 %div1.i.i.i10, 1
  %5 = zext nneg i32 %narrow to i64
  br label %_ZN6google8protobuf8internal14WireFormatLite9Int32SizeEi.exit

_ZN6google8protobuf8internal14WireFormatLite9Int32SizeEi.exit: ; preds = %if.then8, %if.else.i.i
  %retval.0.i.i = phi i64 [ %5, %if.else.i.i ], [ 11, %if.then8 ]
  %add12 = add i64 %retval.0.i.i, %total_size.0
  br label %if.end13

if.end13:                                         ; preds = %_ZN6google8protobuf8internal14WireFormatLite9Int32SizeEi.exit, %if.end
  %total_size.1 = phi i64 [ %add12, %_ZN6google8protobuf8internal14WireFormatLite9Int32SizeEi.exit ], [ %total_size.0, %if.end ]
  %_internal_metadata_ = getelementptr inbounds i8, ptr %this, i64 8
  %6 = load ptr, ptr %_internal_metadata_, align 8
  %7 = ptrtoint ptr %6 to i64
  %conv.i5 = and i64 %7, 1
  %cmp.i.not = icmp eq i64 %conv.i5, 0
  br i1 %cmp.i.not, label %if.end18, label %if.then15

if.then15:                                        ; preds = %if.end13
  %_cached_size_ = getelementptr inbounds i8, ptr %this, i64 28
  %call17 = tail call noundef i64 @_ZN6google8protobuf8internal24ComputeUnknownFieldsSizeERKNS1_16InternalMetadataEmPNS1_10CachedSizeE(ptr noundef nonnull align 8 dereferenceable(8) %_internal_metadata_, i64 noundef %total_size.1, ptr noundef nonnull %_cached_size_)
  br label %return

if.end18:                                         ; preds = %if.end13
  %conv.i = trunc i64 %total_size.1 to i32
  %_cached_size_.i = getelementptr inbounds i8, ptr %this, i64 28
  store atomic i32 %conv.i, ptr %_cached_size_.i monotonic, align 4
  br label %return

return:                                           ; preds = %if.end18, %if.then15
  %retval.0 = phi i64 [ %call17, %if.then15 ], [ %total_size.1, %if.end18 ]
  ret i64 %retval.0
}